target datalayout = "e-m:e-p270:32:32-p271:32:32-p272:64:64-i64:64-i128:128-f80:128-n8:16:32:64-S128"
target triple = "x86_64-pc-linux-gnu"

; Function Attrs: nounwind uwtable
define internal i32 @fcmpf(ptr noundef %0, ptr noundef %1, ptr noundef %2) #0 {
  %4 = alloca i32, align 4
  %5 = alloca ptr, align 8
  %6 = alloca ptr, align 8
  %7 = alloca ptr, align 8
  %8 = alloca ptr, align 8
  %9 = alloca ptr, align 8
  %10 = alloca ptr, align 8
  %11 = alloca float, align 4
  %12 = alloca float, align 4
  %13 = alloca i32, align 4
  store ptr %0, ptr %5, align 8, !tbaa !3
  store ptr %1, ptr %6, align 8, !tbaa !3
  store ptr %2, ptr %7, align 8, !tbaa !3
  call void @llvm.lifetime.start.p0(i64 8, ptr %8) #9
  %14 = load ptr, ptr %5, align 8, !tbaa !3
  store ptr %14, ptr %8, align 8, !tbaa !9
  call void @llvm.lifetime.start.p0(i64 8, ptr %9) #9
  %15 = load ptr, ptr %6, align 8, !tbaa !3
  store ptr %15, ptr %9, align 8, !tbaa !9
  call void @llvm.lifetime.start.p0(i64 8, ptr %10) #9
  %16 = load ptr, ptr %7, align 8, !tbaa !3
  store ptr %16, ptr %10, align 8, !tbaa !28
  call void @llvm.lifetime.start.p0(i64 4, ptr %11) #9
  %17 = load ptr, ptr %10, align 8, !tbaa !28
  %18 = load ptr, ptr %8, align 8, !tbaa !9
  %19 = load i32, ptr %18, align 4, !tbaa !7
  %20 = sext i32 %19 to i64
  %21 = getelementptr inbounds float, ptr %17, i64 %20
  %22 = load float, ptr %21, align 4, !tbaa !30
  store float %22, ptr %11, align 4, !tbaa !30
  call void @llvm.lifetime.start.p0(i64 4, ptr %12) #9
  %23 = load ptr, ptr %10, align 8, !tbaa !28
  %24 = load ptr, ptr %9, align 8, !tbaa !9
  %25 = load i32, ptr %24, align 4, !tbaa !7
  %26 = sext i32 %25 to i64
  %27 = getelementptr inbounds float, ptr %23, i64 %26
  %28 = load float, ptr %27, align 4, !tbaa !30
  store float %28, ptr %12, align 4, !tbaa !30
  %29 = load float, ptr %11, align 4, !tbaa !30
  %30 = load float, ptr %12, align 4, !tbaa !30
  %31 = fcmp olt float %29, %30
  br i1 %31, label %32, label %33

32:                                               ; preds = %3
  store i32 -1, ptr %4, align 4
  store i32 1, ptr %13, align 4
  br label %39

33:                                               ; preds = %3
  %34 = load float, ptr %11, align 4, !tbaa !30
  %35 = load float, ptr %12, align 4, !tbaa !30
  %36 = fcmp ogt float %34, %35
  br i1 %36, label %37, label %38

37:                                               ; preds = %33
  store i32 1, ptr %4, align 4
  store i32 1, ptr %13, align 4
  br label %39

38:                                               ; preds = %33
  store i32 0, ptr %4, align 4
  store i32 1, ptr %13, align 4
  br label %39

39:                                               ; preds = %38, %37, %32
  call void @llvm.lifetime.end.p0(i64 4, ptr %12) #9
  call void @llvm.lifetime.end.p0(i64 4, ptr %11) #9
  call void @llvm.lifetime.end.p0(i64 8, ptr %10) #9
  call void @llvm.lifetime.end.p0(i64 8, ptr %9) #9
  call void @llvm.lifetime.end.p0(i64 8, ptr %8) #9
  %40 = load i32, ptr %4, align 4
  ret i32 %40
}