; Function Attrs: mustprogress nofree norecurse nosync nounwind willreturn memory(argmem: read) uwtable
define internal range(i32 -1, 2) i32 @fcmpf(ptr noundef readonly captures(none) %0, ptr noundef readonly captures(none) %1, ptr noundef readonly captures(none) %2) #7 {
  %4 = load i32, ptr %0, align 4, !tbaa !12
  %5 = sext i32 %4 to i64
  %6 = getelementptr inbounds float, ptr %2, i64 %5
  %7 = load float, ptr %6, align 4, !tbaa !29
  %8 = load i32, ptr %1, align 4, !tbaa !12
  %9 = sext i32 %8 to i64
  %10 = getelementptr inbounds float, ptr %2, i64 %9
  %11 = load float, ptr %10, align 4, !tbaa !29
  %12 = fcmp olt float %7, %11
  %13 = fcmp ogt float %7, %11
  %. = zext i1 %13 to i32
  %.0 = select i1 %12, i32 -1, i32 %.
  ret i32 %.0
}